; Function Attrs: mustprogress nounwind uwtable
define hidden void @_ZN17XNMethodsIteratorC2Ev(ptr nocapture nonnull readnone align 1 %0) unnamed_addr #1 align 2 {
  %2 = load i8, ptr @ClassUnloading, align 1
  %3 = trunc i8 %2 to i1
  br i1 %3, label %5, label %4

4:                                                ; preds = %1
  tail call void @_ZN8XNMethod17nmethods_do_beginEv() #7
  br label %5

5:                                                ; preds = %4, %1
  ret void
}